target datalayout = "e-m:e-p270:32:32-p271:32:32-p272:64:64-i64:64-i128:128-f80:128-n8:16:32:64-S128"
target triple = "x86_64-pc-linux-gnu"

%struct._lv_table_t = type { %struct._lv_obj_t, i32, i32, ptr, ptr, ptr, i32, i32 }
%struct._lv_obj_t = type { ptr, ptr, ptr, ptr, ptr, %struct.lv_area_t, i32, i16, i16 }
%struct.lv_area_t = type { i32, i32, i32, i32 }
%struct._lv_table_cell_t = type { i32, ptr, [1 x i8] }

; Function Attrs: inlinehint nounwind uwtable
define internal zeroext i1 @is_cell_empty(ptr noundef %0) #4 {
  %2 = alloca ptr, align 8
  store ptr %0, ptr %2, align 8, !tbaa !37
  %3 = load ptr, ptr %2, align 8, !tbaa !37
  %4 = icmp eq ptr %3, null
  ret i1 %4
}

; Function Attrs: nounwind uwtable
define ptr @lv_table_get_cell_user_data(ptr noundef %0, i16 noundef zeroext %1, i16 noundef zeroext %2) #0 {
  %4 = alloca ptr, align 8
  %5 = alloca ptr, align 8
  %6 = alloca i16, align 2
  %7 = alloca i16, align 2
  %8 = alloca ptr, align 8
  %9 = alloca i32, align 4
  %10 = alloca i32, align 4
  store ptr %0, ptr %5, align 8, !tbaa !8
  store i16 %1, ptr %6, align 2, !tbaa !61
  store i16 %2, ptr %7, align 2, !tbaa !61
  br label %11

11:                                               ; preds = %3
  %12 = load ptr, ptr %5, align 8, !tbaa !8
  %13 = icmp ne ptr %12, null
  br i1 %13, label %18, label %14

14:                                               ; preds = %11
  br label %15

15:                                               ; preds = %14
  br label %16

16:                                               ; preds = %15
  br label %17

17:                                               ; preds = %16, %17
  br label %17

18:                                               ; preds = %11
  br label %19

19:                                               ; preds = %18
  call void @llvm.lifetime.start.p0(i64 8, ptr %8) #6
  %20 = load ptr, ptr %5, align 8, !tbaa !8
  store ptr %20, ptr %8, align 8, !tbaa !10
  %21 = load i16, ptr %6, align 2, !tbaa !61
  %22 = zext i16 %21 to i32
  %23 = load ptr, ptr %8, align 8, !tbaa !10
  %24 = getelementptr inbounds nuw %struct._lv_table_t, ptr %23, i32 0, i32 2
  %25 = load i32, ptr %24, align 4, !tbaa !22
  %26 = icmp uge i32 %22, %25
  br i1 %26, label %34, label %27

27:                                               ; preds = %19
  %28 = load i16, ptr %7, align 2, !tbaa !61
  %29 = zext i16 %28 to i32
  %30 = load ptr, ptr %8, align 8, !tbaa !10
  %31 = getelementptr inbounds nuw %struct._lv_table_t, ptr %30, i32 0, i32 1
  %32 = load i32, ptr %31, align 8, !tbaa !12
  %33 = icmp uge i32 %29, %32
  br i1 %33, label %34, label %38

34:                                               ; preds = %27, %19
  br label %35

35:                                               ; preds = %34
  br label %36

36:                                               ; preds = %35
  br label %37

37:                                               ; preds = %36
  store ptr null, ptr %4, align 8
  store i32 1, ptr %9, align 4
  br label %68

38:                                               ; preds = %27
  call void @llvm.lifetime.start.p0(i64 4, ptr %10) #6
  %39 = load i16, ptr %6, align 2, !tbaa !61
  %40 = zext i16 %39 to i32
  %41 = load ptr, ptr %8, align 8, !tbaa !10
  %42 = getelementptr inbounds nuw %struct._lv_table_t, ptr %41, i32 0, i32 1
  %43 = load i32, ptr %42, align 8, !tbaa !12
  %44 = mul i32 %40, %43
  %45 = load i16, ptr %7, align 2, !tbaa !61
  %46 = zext i16 %45 to i32
  %47 = add i32 %44, %46
  store i32 %47, ptr %10, align 4, !tbaa !25
  %48 = load ptr, ptr %8, align 8, !tbaa !10
  %49 = getelementptr inbounds nuw %struct._lv_table_t, ptr %48, i32 0, i32 3
  %50 = load ptr, ptr %49, align 8, !tbaa !26
  %51 = load i32, ptr %10, align 4, !tbaa !25
  %52 = zext i32 %51 to i64
  %53 = getelementptr inbounds nuw ptr, ptr %50, i64 %52
  %54 = load ptr, ptr %53, align 8, !tbaa !27
  %55 = call zeroext i1 @is_cell_empty(ptr noundef %54)
  br i1 %55, label %56, label %57

56:                                               ; preds = %38
  store ptr null, ptr %4, align 8
  store i32 1, ptr %9, align 4
  br label %67

57:                                               ; preds = %38
  %58 = load ptr, ptr %8, align 8, !tbaa !10
  %59 = getelementptr inbounds nuw %struct._lv_table_t, ptr %58, i32 0, i32 3
  %60 = load ptr, ptr %59, align 8, !tbaa !26
  %61 = load i32, ptr %10, align 4, !tbaa !25
  %62 = zext i32 %61 to i64
  %63 = getelementptr inbounds nuw ptr, ptr %60, i64 %62
  %64 = load ptr, ptr %63, align 8, !tbaa !27
  %65 = getelementptr inbounds nuw %struct._lv_table_cell_t, ptr %64, i32 0, i32 1
  %66 = load ptr, ptr %65, align 8, !tbaa !31
  store ptr %66, ptr %4, align 8
  store i32 1, ptr %9, align 4
  br label %67

67:                                               ; preds = %57, %56
  call void @llvm.lifetime.end.p0(i64 4, ptr %10) #6
  br label %68

68:                                               ; preds = %67, %37
  call void @llvm.lifetime.end.p0(i64 8, ptr %8) #6
  %69 = load ptr, ptr %4, align 8
  ret ptr %69
}