; Function Attrs: nofree norecurse nosync nounwind memory(read, inaccessiblemem: none) uwtable
define ptr @lv_table_get_cell_user_data(ptr noundef readonly captures(address_is_null) %0, i16 noundef zeroext %1, i16 noundef zeroext %2) local_unnamed_addr #4 {
  %.not = icmp eq ptr %0, null
  br i1 %.not, label %.preheader, label %4

.preheader:                                       ; preds = %3, %.preheader
  br label %.preheader

4:                                                ; preds = %3
  %5 = zext i16 %1 to i32
  %6 = getelementptr inbounds nuw i8, ptr %0, i64 68
  %7 = load i32, ptr %6, align 4, !tbaa !18
  %.not17 = icmp ugt i32 %7, %5
  br i1 %.not17, label %8, label %24

8:                                                ; preds = %4
  %9 = zext i16 %2 to i32
  %10 = getelementptr inbounds nuw i8, ptr %0, i64 64
  %11 = load i32, ptr %10, align 8, !tbaa !3
  %.not18 = icmp ugt i32 %11, %9
  br i1 %.not18, label %12, label %24

12:                                               ; preds = %8
  %13 = mul i32 %11, %5
  %14 = add i32 %13, %9
  %15 = getelementptr inbounds nuw i8, ptr %0, i64 72
  %16 = load ptr, ptr %15, align 8, !tbaa !22
  %17 = zext i32 %14 to i64
  %18 = getelementptr inbounds nuw ptr, ptr %16, i64 %17
  %19 = load ptr, ptr %18, align 8, !tbaa !23
  %20 = icmp eq ptr %19, null
  br i1 %20, label %24, label %21

21:                                               ; preds = %12
  %22 = getelementptr inbounds nuw i8, ptr %19, i64 8
  %23 = load ptr, ptr %22, align 8, !tbaa !27
  br label %24

24:                                               ; preds = %21, %12, %8, %4
  %.0 = phi ptr [ null, %4 ], [ null, %8 ], [ %23, %21 ], [ null, %12 ]
  ret ptr %.0
}